; Function Attrs: nounwind uwtable
define zeroext range(i8 0, 2) i8 @l_Array_anyMUnsafe_any___at_Lean_LocalContext_any___spec__5(ptr noundef %0, ptr noundef readonly captures(none) %1, i64 noundef %2, i64 noundef %3) local_unnamed_addr #2 {
  %.not61 = icmp eq i64 %2, %3
  br i1 %.not61, label %.._crit_edge_crit_edge, label %.lr.ph

.._crit_edge_crit_edge:                           ; preds = %4
  %.pre = ptrtoint ptr %0 to i64
  %.pre63 = and i64 %.pre, 1
  br label %._crit_edge

.lr.ph:                                           ; preds = %4
  %5 = getelementptr inbounds nuw i8, ptr %1, i64 24
  %6 = ptrtoint ptr %0 to i64
  %7 = and i64 %6, 1
  %.not59 = icmp eq i64 %7, 0
  br label %8

8:                                                ; preds = %.lr.ph, %lean_dec.exit33
  %.02662 = phi i64 [ %2, %.lr.ph ], [ %.329, %lean_dec.exit33 ]
  %9 = getelementptr inbounds nuw [0 x ptr], ptr %5, i64 0, i64 %.02662
  %10 = load ptr, ptr %9, align 8, !tbaa !9
  %11 = ptrtoint ptr %10 to i64
  %12 = and i64 %11, 1
  %.not.i43 = icmp eq i64 %12, 0
  br i1 %.not.i43, label %13, label %lean_array_uget.exit

13:                                               ; preds = %8
  %.val.i.i = load i32, ptr %10, align 4, !tbaa !4
  %14 = icmp sgt i32 %.val.i.i, 0
  br i1 %14, label %15, label %17, !prof !11

15:                                               ; preds = %13
  %16 = add nuw i32 %.val.i.i, 1
  store i32 %16, ptr %10, align 4, !tbaa !4
  br label %21

17:                                               ; preds = %13
  %.not.i.i = icmp eq i32 %.val.i.i, 0
  br i1 %.not.i.i, label %21, label %18

18:                                               ; preds = %17
  tail call void @lean_inc_ref_cold(ptr noundef nonnull %10) #8
  br label %21

lean_array_uget.exit:                             ; preds = %8
  %19 = lshr i64 %11, 1
  %20 = trunc i64 %19 to i32
  br label %lean_obj_tag.exit

21:                                               ; preds = %15, %17, %18
  %22 = getelementptr i8, ptr %10, i64 4
  %.val.i = load i32, ptr %22, align 4
  %23 = lshr i32 %.val.i, 24
  br label %lean_obj_tag.exit

lean_obj_tag.exit:                                ; preds = %lean_array_uget.exit, %21
  %.0.i = phi i32 [ %20, %lean_array_uget.exit ], [ %23, %21 ]
  %24 = icmp eq i32 %.0.i, 0
  br i1 %24, label %lean_dec.exit33, label %25

25:                                               ; preds = %lean_obj_tag.exit
  %26 = getelementptr inbounds nuw i8, ptr %10, i64 8
  %27 = load ptr, ptr %26, align 8, !tbaa !9
  %28 = ptrtoint ptr %27 to i64
  %29 = and i64 %28, 1
  %.not57 = icmp eq i64 %29, 0
  br i1 %.not57, label %30, label %lean_inc.exit36

30:                                               ; preds = %25
  %.val.i45 = load i32, ptr %27, align 4, !tbaa !4
  %31 = icmp sgt i32 %.val.i45, 0
  br i1 %31, label %32, label %34, !prof !11

32:                                               ; preds = %30
  %33 = add nuw i32 %.val.i45, 1
  store i32 %33, ptr %27, align 4, !tbaa !4
  br label %lean_inc.exit36

34:                                               ; preds = %30
  %.not.i46 = icmp eq i32 %.val.i45, 0
  br i1 %.not.i46, label %lean_inc.exit36, label %35

35:                                               ; preds = %34
  tail call void @lean_inc_ref_cold(ptr noundef nonnull %27) #8
  br label %lean_inc.exit36

lean_inc.exit36:                                  ; preds = %35, %34, %32, %25
  br i1 %.not.i43, label %36, label %lean_dec.exit35

36:                                               ; preds = %lean_inc.exit36
  %37 = load i32, ptr %10, align 4, !tbaa !4
  %38 = icmp sgt i32 %37, 1
  br i1 %38, label %39, label %41, !prof !11

39:                                               ; preds = %36
  %40 = add nsw i32 %37, -1
  store i32 %40, ptr %10, align 4, !tbaa !4
  br label %lean_dec.exit35

41:                                               ; preds = %36
  %.not.i = icmp eq i32 %37, 0
  br i1 %.not.i, label %lean_dec.exit35, label %42

42:                                               ; preds = %41
  tail call void @lean_dec_ref_cold(ptr noundef nonnull %10) #8
  br label %lean_dec.exit35

lean_dec.exit35:                                  ; preds = %42, %41, %39, %lean_inc.exit36
  br i1 %.not59, label %43, label %lean_inc.exit

43:                                               ; preds = %lean_dec.exit35
  %.val.i47 = load i32, ptr %0, align 4, !tbaa !4
  %44 = icmp sgt i32 %.val.i47, 0
  br i1 %44, label %45, label %47, !prof !11

45:                                               ; preds = %43
  %46 = add nuw i32 %.val.i47, 1
  store i32 %46, ptr %0, align 4, !tbaa !4
  br label %lean_inc.exit

47:                                               ; preds = %43
  %.not.i48 = icmp eq i32 %.val.i47, 0
  br i1 %.not.i48, label %lean_inc.exit, label %48

48:                                               ; preds = %47
  tail call void @lean_inc_ref_cold(ptr noundef nonnull %0) #8
  br label %lean_inc.exit

lean_inc.exit:                                    ; preds = %48, %47, %45, %lean_dec.exit35
  %49 = tail call ptr @lean_apply_1(ptr noundef %0, ptr noundef %27) #8
  %50 = ptrtoint ptr %49 to i64
  %51 = and i64 %50, 1
  %.not60 = icmp eq i64 %51, 0
  br i1 %.not60, label %52, label %lean_dec.exit34

52:                                               ; preds = %lean_inc.exit
  %53 = load i32, ptr %49, align 4, !tbaa !4
  %54 = icmp sgt i32 %53, 1
  br i1 %54, label %55, label %57, !prof !11

55:                                               ; preds = %52
  %56 = add nsw i32 %53, -1
  store i32 %56, ptr %49, align 4, !tbaa !4
  br label %lean_dec.exit34

57:                                               ; preds = %52
  %.not.i37 = icmp eq i32 %53, 0
  br i1 %.not.i37, label %lean_dec.exit34, label %58

58:                                               ; preds = %57
  tail call void @lean_dec_ref_cold(ptr noundef nonnull %49) #8
  br label %lean_dec.exit34

lean_dec.exit34:                                  ; preds = %58, %57, %55, %lean_inc.exit
  %59 = and i64 %50, 510
  %60 = icmp eq i64 %59, 0
  br i1 %60, label %lean_dec.exit33, label %61

61:                                               ; preds = %lean_dec.exit34
  br i1 %.not59, label %62, label %76

62:                                               ; preds = %61
  %63 = load i32, ptr %0, align 4, !tbaa !4
  %64 = icmp sgt i32 %63, 1
  br i1 %64, label %65, label %67, !prof !11

65:                                               ; preds = %62
  %66 = add nsw i32 %63, -1
  store i32 %66, ptr %0, align 4, !tbaa !4
  br label %76

67:                                               ; preds = %62
  %.not.i39 = icmp eq i32 %63, 0
  br i1 %.not.i39, label %76, label %68

68:                                               ; preds = %67
  tail call void @lean_dec_ref_cold(ptr noundef nonnull %0) #8
  br label %76

._crit_edge:                                      ; preds = %lean_dec.exit33, %.._crit_edge_crit_edge
  %.pre-phi64 = phi i64 [ %.pre63, %.._crit_edge_crit_edge ], [ %7, %lean_dec.exit33 ]
  %.not56 = icmp eq i64 %.pre-phi64, 0
  br i1 %.not56, label %69, label %76

69:                                               ; preds = %._crit_edge
  %70 = load i32, ptr %0, align 4, !tbaa !4
  %71 = icmp sgt i32 %70, 1
  br i1 %71, label %72, label %74, !prof !11

72:                                               ; preds = %69
  %73 = add nsw i32 %70, -1
  store i32 %73, ptr %0, align 4, !tbaa !4
  br label %76

74:                                               ; preds = %69
  %.not.i41 = icmp eq i32 %70, 0
  br i1 %.not.i41, label %76, label %75

75:                                               ; preds = %74
  tail call void @lean_dec_ref_cold(ptr noundef nonnull %0) #8
  br label %76

lean_dec.exit33:                                  ; preds = %lean_dec.exit34, %lean_obj_tag.exit
  %.329 = add i64 %.02662, 1
  %.not = icmp eq i64 %.329, %3
  br i1 %.not, label %._crit_edge, label %8

76:                                               ; preds = %68, %67, %65, %61, %75, %74, %72, %._crit_edge
  %.3.ph = phi i8 [ 0, %._crit_edge ], [ 0, %72 ], [ 0, %74 ], [ 0, %75 ], [ 1, %61 ], [ 1, %65 ], [ 1, %67 ], [ 1, %68 ]
  ret i8 %.3.ph
}